; Function Attrs: mustprogress uwtable
define void @_ZN12colvarmodule8rotation21calc_optimal_rotationERKSt6vectorINS_7rvectorESaIS2_EES6_(ptr noundef nonnull align 8 dereferenceable(568) initializes((0, 72)) %0, ptr noundef nonnull align 8 dereferenceable(24) %1, ptr noundef nonnull align 8 dereferenceable(24) %2) local_unnamed_addr #0 align 2 {
  tail call void @llvm.memset.p0.i64(ptr noundef nonnull align 8 dereferenceable(72) %0, i8 0, i64 72, i1 false)
  %4 = getelementptr inbounds nuw i8, ptr %1, i64 8
  %5 = load ptr, ptr %4, align 8, !tbaa !72
  %6 = load ptr, ptr %1, align 8, !tbaa !75
  %.not.i = icmp eq ptr %5, %6
  br i1 %.not.i, label %_ZN12colvarmodule8rotation24build_correlation_matrixERKSt6vectorINS_7rvectorESaIS2_EES6_.exit, label %.lr.ph.i

.lr.ph.i:                                         ; preds = %3
  %7 = ptrtoint ptr %5 to i64
  %8 = ptrtoint ptr %6 to i64
  %9 = sub i64 %7, %8
  %10 = sdiv exact i64 %9, 24
  %11 = load ptr, ptr %2, align 8, !tbaa !75
  %12 = getelementptr inbounds nuw i8, ptr %0, i64 8
  %13 = getelementptr inbounds nuw i8, ptr %0, i64 16
  %14 = getelementptr inbounds nuw i8, ptr %0, i64 24
  %15 = getelementptr inbounds nuw i8, ptr %0, i64 32
  %16 = getelementptr inbounds nuw i8, ptr %0, i64 40
  %17 = getelementptr inbounds nuw i8, ptr %0, i64 48
  %18 = getelementptr inbounds nuw i8, ptr %0, i64 56
  %19 = getelementptr inbounds nuw i8, ptr %0, i64 64
  %umax.i = tail call i64 @llvm.umax.i64(i64 %10, i64 1)
  br label %20

20:                                               ; preds = %20, %.lr.ph.i
  %21 = phi double [ 0.000000e+00, %.lr.ph.i ], [ %50, %20 ]
  %22 = phi double [ 0.000000e+00, %.lr.ph.i ], [ %49, %20 ]
  %23 = phi double [ 0.000000e+00, %.lr.ph.i ], [ %48, %20 ]
  %24 = phi double [ 0.000000e+00, %.lr.ph.i ], [ %45, %20 ]
  %25 = phi double [ 0.000000e+00, %.lr.ph.i ], [ %44, %20 ]
  %26 = phi double [ 0.000000e+00, %.lr.ph.i ], [ %43, %20 ]
  %27 = phi double [ 0.000000e+00, %.lr.ph.i ], [ %40, %20 ]
  %28 = phi double [ 0.000000e+00, %.lr.ph.i ], [ %37, %20 ]
  %.039.i = phi i64 [ 0, %.lr.ph.i ], [ %51, %20 ]
  %29 = phi double [ 0.000000e+00, %.lr.ph.i ], [ %34, %20 ]
  %30 = getelementptr inbounds nuw %"class.colvarmodule::rvector", ptr %6, i64 %.039.i
  %31 = load double, ptr %30, align 8, !tbaa !23
  %32 = getelementptr inbounds nuw %"class.colvarmodule::rvector", ptr %11, i64 %.039.i
  %33 = load double, ptr %32, align 8, !tbaa !23
  %34 = tail call double @llvm.fmuladd.f64(double %31, double %33, double %29)
  %35 = getelementptr inbounds nuw i8, ptr %32, i64 8
  %36 = load double, ptr %35, align 8, !tbaa !26
  %37 = tail call double @llvm.fmuladd.f64(double %31, double %36, double %28)
  %38 = getelementptr inbounds nuw i8, ptr %32, i64 16
  %39 = load double, ptr %38, align 8, !tbaa !27
  %40 = tail call double @llvm.fmuladd.f64(double %31, double %39, double %27)
  %41 = getelementptr inbounds nuw i8, ptr %30, i64 8
  %42 = load double, ptr %41, align 8, !tbaa !26
  %43 = tail call double @llvm.fmuladd.f64(double %42, double %33, double %26)
  %44 = tail call double @llvm.fmuladd.f64(double %42, double %36, double %25)
  %45 = tail call double @llvm.fmuladd.f64(double %42, double %39, double %24)
  %46 = getelementptr inbounds nuw i8, ptr %30, i64 16
  %47 = load double, ptr %46, align 8, !tbaa !27
  %48 = tail call double @llvm.fmuladd.f64(double %47, double %33, double %23)
  %49 = tail call double @llvm.fmuladd.f64(double %47, double %36, double %22)
  %50 = tail call double @llvm.fmuladd.f64(double %47, double %39, double %21)
  %51 = add nuw i64 %.039.i, 1
  %exitcond.not.i = icmp eq i64 %51, %umax.i
  br i1 %exitcond.not.i, label %._crit_edge.i, label %20, !llvm.loop !84

._crit_edge.i:                                    ; preds = %20
  store double %34, ptr %0, align 8, !tbaa !86
  store double %37, ptr %12, align 8, !tbaa !76
  store double %40, ptr %13, align 8, !tbaa !77
  store double %43, ptr %14, align 8, !tbaa !78
  store double %44, ptr %15, align 8, !tbaa !79
  store double %45, ptr %16, align 8, !tbaa !80
  store double %48, ptr %17, align 8, !tbaa !81
  store double %49, ptr %18, align 8, !tbaa !82
  store double %50, ptr %19, align 8, !tbaa !83
  br label %_ZN12colvarmodule8rotation24build_correlation_matrixERKSt6vectorINS_7rvectorESaIS2_EES6_.exit

_ZN12colvarmodule8rotation24build_correlation_matrixERKSt6vectorINS_7rvectorESaIS2_EES6_.exit: ; preds = %3, %._crit_edge.i
  tail call void @_ZN12colvarmodule8rotation26calc_optimal_rotation_implEv(ptr noundef nonnull align 8 dereferenceable(568) %0)
  %52 = getelementptr inbounds nuw i8, ptr %0, i64 488
  %53 = load i8, ptr %52, align 8, !tbaa !61, !range !99, !noundef !100
  %54 = trunc nuw i8 %53 to i1
  br i1 %54, label %55, label %56

55:                                               ; preds = %_ZN12colvarmodule8rotation24build_correlation_matrixERKSt6vectorINS_7rvectorESaIS2_EES6_.exit
  tail call void @_Z15debug_gradientsIN12colvarmodule7rvectorES1_EvRNS0_8rotationERKSt6vectorIT_SaIS5_EERKS4_IT0_SaISA_EE(ptr noundef nonnull align 8 dereferenceable(568) %0, ptr noundef nonnull align 8 dereferenceable(24) %1, ptr noundef nonnull align 8 dereferenceable(24) %2)
  br label %56

56:                                               ; preds = %55, %_ZN12colvarmodule8rotation24build_correlation_matrixERKSt6vectorINS_7rvectorESaIS2_EES6_.exit
  ret void
}